; Function Attrs: mustprogress nounwind uwtable
define dso_local noundef range(i32 0, 4) i32 @_ZN4llvm3ARM16parseArchProfileENS_9StringRefE(ptr %0, i64 %1) local_unnamed_addr #0 {
  %3 = tail call { ptr, i64 } @_ZN4llvm3ARM20getCanonicalArchNameENS_9StringRefE(ptr %0, i64 %1) #16
  %4 = extractvalue { ptr, i64 } %3, 0
  %5 = extractvalue { ptr, i64 } %3, 1
  %6 = tail call { ptr, i64 } @_ZN4llvm3ARM20getCanonicalArchNameENS_9StringRefE(ptr %4, i64 %5) #16
  %7 = extractvalue { ptr, i64 } %6, 0
  %8 = extractvalue { ptr, i64 } %6, 1
  %9 = tail call { ptr, i64 } @_ZN4llvm3ARM14getArchSynonymENS_9StringRefE(ptr %7, i64 %8) #16
  %.fr.i = freeze { ptr, i64 } %9
  %10 = extractvalue { ptr, i64 } %.fr.i, 0
  %11 = extractvalue { ptr, i64 } %.fr.i, 1
  %12 = icmp eq i64 %11, 0
  %13 = sub i64 0, %11
  br i1 %12, label %_ZN4llvm3ARM9parseArchENS_9StringRefE.exit, label %.split.i

.split.i:                                         ; preds = %2, %_ZNK4llvm9StringRef9ends_withES0_.exit.thread17.i
  %.016.idx19.i = phi i64 [ %.016.add.i, %_ZNK4llvm9StringRef9ends_withES0_.exit.thread17.i ], [ 0, %2 ]
  %.016.ptr20.i = getelementptr inbounds i8, ptr @_ZN4llvm3ARML12ARMArchNamesE, i64 %.016.idx19.i
  %14 = getelementptr inbounds nuw i8, ptr %.016.ptr20.i, i64 8
  %15 = load i64, ptr %14, align 8
  %.not.i.i = icmp ult i64 %15, %11
  br i1 %.not.i.i, label %_ZNK4llvm9StringRef9ends_withES0_.exit.thread17.i, label %_ZNK4llvm9StringRef9ends_withES0_.exit.i

_ZNK4llvm9StringRef9ends_withES0_.exit.i:         ; preds = %.split.i
  %16 = load ptr, ptr %.016.ptr20.i, align 8
  %17 = getelementptr inbounds i8, ptr %16, i64 %15
  %18 = getelementptr inbounds i8, ptr %17, i64 %13
  %bcmp.i.i = tail call i32 @bcmp(ptr nonnull %18, ptr %10, i64 %11)
  %19 = icmp eq i32 %bcmp.i.i, 0
  br i1 %19, label %_ZN4llvm3ARM9parseArchENS_9StringRefE.exit, label %_ZNK4llvm9StringRef9ends_withES0_.exit.thread17.i

_ZNK4llvm9StringRef9ends_withES0_.exit.thread17.i: ; preds = %_ZNK4llvm9StringRef9ends_withES0_.exit.i, %.split.i
  %.016.add.i = add nuw nsw i64 %.016.idx19.i, 72
  %.not.i = icmp eq i64 %.016.add.i, 2952
  br i1 %.not.i, label %_ZL14getProfileKindN4llvm3ARM8ArchKindE.exit, label %.split.i

_ZN4llvm3ARM9parseArchENS_9StringRefE.exit:       ; preds = %_ZNK4llvm9StringRef9ends_withES0_.exit.i, %2
  %20 = phi i64 [ 0, %2 ], [ %.016.idx19.i, %_ZNK4llvm9StringRef9ends_withES0_.exit.i ]
  %21 = getelementptr inbounds i8, ptr @_ZN4llvm3ARML12ARMArchNamesE, i64 %20
  %22 = getelementptr inbounds nuw i8, ptr %21, i64 64
  %23 = load i32, ptr %22, align 8
  %24 = sext i32 %23 to i64
  %switch.gep = getelementptr inbounds [41 x i32], ptr @switch.table._ZN4llvm3ARM16parseArchProfileENS_9StringRefE, i64 0, i64 %24
  %switch.load = load i32, ptr %switch.gep, align 4
  br label %_ZL14getProfileKindN4llvm3ARM8ArchKindE.exit

_ZL14getProfileKindN4llvm3ARM8ArchKindE.exit:     ; preds = %_ZNK4llvm9StringRef9ends_withES0_.exit.thread17.i, %_ZN4llvm3ARM9parseArchENS_9StringRefE.exit
  %.0.i7 = phi i32 [ %switch.load, %_ZN4llvm3ARM9parseArchENS_9StringRefE.exit ], [ 0, %_ZNK4llvm9StringRef9ends_withES0_.exit.thread17.i ]
  ret i32 %.0.i7
}